(lp1
(lp2
I136
aI12
aI65
aI0
aa(lp3
I84
aI9
aI34
aI0
aa(lp4
I41
aI2
aI10
aI0
aa(lp5
I91
aI4
aI32
aI0
aa(lp6
I34
aI0
aI10
aI0
aa(lp7
I126
aI10
aI50
aI0
aa(lp8
I83
aI5
aI26
aI0
aa(lp9
I63
aI5
aI29
aI0
aa(lp10
I130
aI8
aI47
aI0
aa(lp11
I30
aI1
aI8
aI0
aa(lp12
I39
aI1
aI19
aI0
aa(lp13
I42
aI0
aI4
aI0
aa(lp14
I83
aI2
aI21
aI0
aa(lp15
I83
aI11
aI30
aI0
aa(lp16
I53
aI7
aI20
aI0
aa(lp17
I71
aI4
aI26
aI0
aa(lp18
I54
aI2
aI15
aI0
aa(lp19
I81
aI7
aI33
aI0
aa(lp20
I70
aI0
aI17
aI0
aa(lp21
I89
aI6
aI33
aI0
aa(lp22
I93
aI7
aI33
aI0
aa(lp23
I50
aI3
aI17
aI0
aa(lp24
I59
aI2
aI17
aI0
aa(lp25
I101
aI8
aI46
aI0
aa(lp26
I72
aI7
aI26
aI0
aa(lp27
I64
aI2
aI19
aI0
aa(lp28
I88
aI6
aI29
aI0
aa(lp29
I40
aI6
aI14
aI0
aa(lp30
I50
aI7
aI22
aI0
aa(lp31
I22
aI0
aI4
aI0
aa(lp32
I78
aI4
aI26
aI0
aa(lp33
I57
aI4
aI20
aI0
aa(lp34
I53
aI3
aI16
aI0
aa(lp35
I153
aI11
aI51
aI1
aa(lp36
I30
aI1
aI7
aI0
aa(lp37
I55
aI2
aI15
aI0
aa(lp38
I101
aI8
aI33
aI0
aa(lp39
I49
aI1
aI18
aI0
aa(lp40
I56
aI8
aI23
aI0
aa(lp41
I76
aI6
aI27
aI0
aa(lp42
I75
aI7
aI34
aI0
aa(lp43
I68
aI6
aI25
aI0
aa(lp44
I66
aI5
aI24
aI0
aa(lp45
I66
aI7
aI26
aI0
aa(lp46
I114
aI12
aI59
aI0
aa(lp47
I56
aI2
aI19
aI0
aa(lp48
I36
aI4
aI19
aI0
aa(lp49
I49
aI3
aI16
aI0
aa(lp50
I62
aI5
aI26
aI0
aa(lp51
I73
aI4
aI32
aI0
aa(lp52
I80
aI8
aI31
aI0
aa(lp53
I64
aI4
aI22
aI0
aa(lp54
I65
aI4
aI28
aI0
aa(lp55
I58
aI2
aI25
aI0
aa(lp56
I86
aI6
aI45
aI0
aa(lp57
I58
aI5
aI25
aI0
aa(lp58
I60
aI8
aI27
aI0
aa(lp59
I44
aI5
aI20
aI0
aa(lp60
I43
aI8
aI19
aI0
aa(lp61
I83
aI3
aI26
aI0
aa(lp62
I37
aI2
aI20
aI0
aa(lp63
I54
aI3
aI23
aI0
aa(lp64
I46
aI4
aI18
aI0
aa(lp65
I69
aI6
aI33
aI0
aa(lp66
I50
aI5
aI26
aI0
aa(lp67
I93
aI4
aI29
aI0
aa(lp68
I73
aI5
aI19
aI0
aa(lp69
I35
aI5
aI22
aI0
aa(lp70
I49
aI4
aI24
aI0
aa(lp71
I62
aI6
aI29
aI0
aa(lp72
I43
aI5
aI21
aI0
aa(lp73
I49
aI2
aI20
aI0
aa(lp74
I43
aI2
aI19
aI0
aa(lp75
I72
aI7
aI22
aI2
aa(lp76
I53
aI5
aI23
aI0
aa(lp77
I70
aI7
aI27
aI0
aa(lp78
I36
aI7
aI19
aI0
aa(lp79
I20
aI2
aI10
aI0
aa(lp80
I44
aI3
aI11
aI0
aa(lp81
I16
aI2
aI9
aI0
aa(lp82
I36
aI5
aI13
aI0
aa(lp83
I25
aI2
aI9
aI0
aa(lp84
I57
aI5
aI17
aI0
aa(lp85
I8
aI0
aI2
aI0
aa(lp86
I38
aI5
aI21
aI0
aa(lp87
I71
aI3
aI27
aI0
aa(lp88
I57
aI6
aI26
aI0
aa(lp89
I67
aI9
aI27
aI0
aa(lp90
I92
aI8
aI40
aI0
aa(lp91
I74
aI2
aI24
aI0
aa(lp92
I68
aI16
aI34
aI0
aa(lp93
I108
aI9
aI45
aI0
aa(lp94
I47
aI2
aI16
aI0
aa(lp95
I166
aI21
aI62
aI0
aa(lp96
I200
aI30
aI83
aI0
aa(lp97
I24
aI4
aI9
aI0
aa(lp98
I84
aI3
aI31
aI0
aa(lp99
I21
aI0
aI12
aI0
aa(lp100
I39
aI2
aI17
aI0
aa(lp101
I45
aI5
aI19
aI0
aa(lp102
I29
aI0
aI11
aI0
aa(lp103
I82
aI8
aI42
aI0
aa.