(lp1
(lp2
I-1
aI-1
aI-1
aI-1
aa(lp3
I2
aI0
aI1
aI0
aa(lp4
I17
aI0
aI1
aI0
aa(lp5
I-1
aI-1
aI-1
aI-1
aa(lp6
I8
aI0
aI2
aI0
aa(lp7
I-1
aI-1
aI-1
aI-1
aa(lp8
I6
aI0
aI6
aI0
aa(lp9
I0
aI0
aI0
aI0
aa(lp10
I0
aI0
aI1
aI0
aa(lp11
I-1
aI-1
aI-1
aI-1
aa(lp12
I-1
aI-1
aI-1
aI-1
aa(lp13
I-1
aI-1
aI-1
aI-1
aa(lp14
I-1
aI-1
aI-1
aI-1
aa(lp15
I-1
aI-1
aI-1
aI-1
aa(lp16
I-1
aI-1
aI-1
aI-1
aa(lp17
I-1
aI-1
aI-1
aI-1
aa(lp18
I39
aI1
aI11
aI0
aa(lp19
I11
aI0
aI2
aI0
aa(lp20
I6
aI0
aI1
aI0
aa(lp21
I4
aI0
aI0
aI0
aa(lp22
I28
aI0
aI7
aI0
aa(lp23
I11
aI0
aI3
aI0
aa(lp24
I7
aI0
aI3
aI0
aa(lp25
I4
aI0
aI5
aI0
aa(lp26
I14
aI1
aI7
aI0
aa(lp27
I0
aI0
aI0
aI0
aa(lp28
I18
aI0
aI7
aI0
aa(lp29
I20
aI0
aI7
aI0
aa(lp30
I3
aI0
aI1
aI0
aa(lp31
I81
aI5
aI29
aI0
aa(lp32
I2
aI0
aI10
aI0
aa(lp33
I0
aI0
aI0
aI0
aa(lp34
I69
aI0
aI20
aI0
aa(lp35
I0
aI0
aI0
aI0
aa(lp36
I5
aI0
aI1
aI0
aa(lp37
I0
aI0
aI0
aI0
aa(lp38
I7
aI0
aI3
aI0
aa(lp39
I7
aI0
aI1
aI0
aa(lp40
I0
aI0
aI2
aI0
aa(lp41
I0
aI0
aI0
aI0
aa(lp42
I140
aI13
aI65
aI0
aa(lp43
I85
aI9
aI34
aI0
aa(lp44
I41
aI2
aI10
aI0
aa(lp45
I91
aI4
aI32
aI0
aa(lp46
I34
aI0
aI10
aI0
aa(lp47
I128
aI10
aI50
aI0
aa(lp48
I39
aI1
aI19
aI0
aa(lp49
I83
aI5
aI26
aI0
aa(lp50
I65
aI5
aI29
aI0
aa(lp51
I130
aI8
aI47
aI0
aa(lp52
I30
aI1
aI8
aI0
aa(lp53
I42
aI0
aI4
aI0
aa(lp54
I83
aI2
aI21
aI0
aa(lp55
I83
aI11
aI30
aI0
aa(lp56
I53
aI7
aI20
aI0
aa(lp57
I72
aI4
aI27
aI0
aa(lp58
I54
aI2
aI15
aI0
aa(lp59
I85
aI7
aI33
aI0
aa(lp60
I70
aI0
aI17
aI0
aa(lp61
I90
aI6
aI33
aI0
aa(lp62
I93
aI7
aI33
aI0
aa(lp63
I50
aI3
aI17
aI0
aa(lp64
I61
aI2
aI17
aI0
aa(lp65
I102
aI8
aI46
aI0
aa(lp66
I72
aI7
aI26
aI0
aa(lp67
I64
aI2
aI19
aI0
aa(lp68
I89
aI6
aI29
aI0
aa(lp69
I41
aI6
aI14
aI0
aa(lp70
I49
aI7
aI21
aI0
aa(lp71
I22
aI0
aI4
aI0
aa(lp72
I79
aI4
aI26
aI0
aa(lp73
I57
aI4
aI20
aI0
aa(lp74
I53
aI3
aI16
aI0
aa(lp75
I155
aI11
aI52
aI0
aa(lp76
I30
aI1
aI7
aI0
aa(lp77
I55
aI2
aI15
aI0
aa(lp78
I101
aI8
aI33
aI0
aa(lp79
I49
aI1
aI18
aI0
aa(lp80
I58
aI8
aI22
aI0
aa(lp81
I76
aI3
aI26
aI0
aa(lp82
I76
aI7
aI34
aI0
aa(lp83
I70
aI6
aI25
aI0
aa(lp84
I67
aI5
aI24
aI0
aa(lp85
I66
aI7
aI26
aI0
aa(lp86
I120
aI12
aI58
aI0
aa(lp87
I57
aI2
aI19
aI0
aa(lp88
I40
aI4
aI19
aI0
aa(lp89
I49
aI3
aI16
aI0
aa(lp90
I63
aI5
aI26
aI0
aa(lp91
I74
aI4
aI32
aI0
aa(lp92
I81
aI8
aI31
aI0
aa(lp93
I65
aI4
aI22
aI0
aa(lp94
I67
aI4
aI28
aI0
aa(lp95
I88
aI6
aI45
aI0
aa(lp96
I58
aI5
aI25
aI0
aa(lp97
I61
aI8
aI26
aI0
aa(lp98
I51
aI5
aI20
aI0
aa(lp99
I43
aI8
aI19
aI0
aa(lp100
I84
aI3
aI26
aI0
aa(lp101
I38
aI2
aI20
aI0
aa(lp102
I53
aI3
aI22
aI0
aa(lp103
I47
aI4
aI18
aI0
aa(lp104
I71
aI6
aI33
aI0
aa(lp105
I52
aI5
aI26
aI0
aa(lp106
I94
aI4
aI29
aI0
aa(lp107
I74
aI5
aI19
aI0
aa(lp108
I36
aI5
aI22
aI0
aa(lp109
I50
aI4
aI24
aI0
aa(lp110
I64
aI6
aI29
aI0
aa(lp111
I45
aI6
aI21
aI0
aa(lp112
I49
aI2
aI20
aI0
aa(lp113
I43
aI2
aI19
aI0
aa(lp114
I73
aI5
aI22
aI0
aa(lp115
I55
aI5
aI24
aI0
aa(lp116
I73
aI7
aI27
aI0
aa(lp117
I37
aI7
aI19
aI0
aa(lp118
I20
aI2
aI10
aI0
aa(lp119
I44
aI3
aI11
aI0
aa(lp120
I16
aI2
aI8
aI0
aa(lp121
I36
aI4
aI12
aI0
aa(lp122
I25
aI2
aI9
aI0
aa(lp123
I57
aI5
aI17
aI0
aa(lp124
I8
aI0
aI2
aI0
aa(lp125
I38
aI5
aI21
aI0
aa(lp126
I71
aI3
aI26
aI0
aa(lp127
I60
aI6
aI27
aI0
aa(lp128
I70
aI9
aI27
aI0
aa(lp129
I92
aI8
aI37
aI0
aa(lp130
I74
aI2
aI24
aI0
aa(lp131
I70
aI16
aI34
aI0
aa(lp132
I108
aI9
aI45
aI0
aa(lp133
I47
aI2
aI16
aI0
aa(lp134
I168
aI21
aI63
aI0
aa(lp135
I200
aI30
aI83
aI0
aa(lp136
I23
aI4
aI9
aI0
aa(lp137
I85
aI4
aI33
aI0
aa(lp138
I21
aI0
aI12
aI0
aa(lp139
I39
aI2
aI17
aI0
aa(lp140
I47
aI5
aI19
aI0
aa(lp141
I29
aI0
aI11
aI0
aa(lp142
I88
aI8
aI42
aI0
aa(lp143
I34
aI3
aI16
aI0
aa(lp144
I80
aI3
aI31
aI0
aa(lp145
I67
aI4
aI24
aI0
aa(lp146
I53
aI1
aI26
aI0
aa(lp147
I60
aI0
aI11
aI0
aa(lp148
I71
aI4
aI21
aI0
aa(lp149
I38
aI3
aI12
aI0
aa(lp150
I77
aI2
aI27
aI0
aa(lp151
I59
aI1
aI23
aI0
aa(lp152
I51
aI3
aI15
aI0
aa(lp153
I57
aI4
aI22
aI0
aa(lp154
I85
aI0
aI20
aI0
aa(lp155
I58
aI2
aI25
aI0
aa(lp156
I47
aI0
aI7
aI0
aa.